; ModuleID = '23/352.cpp'
source_filename = "23/352.cpp"
target datalayout = "e-m:e-p270:32:32-p271:32:32-p272:64:64-i64:64-f80:128-n8:16:32:64-S128"
target triple = "x86_64-pc-linux-gnu"

%"class.std::ios_base::Init" = type { i8 }
%"class.std::basic_istream" = type { i32 (...)**, i64, %"class.std::basic_ios" }
%"class.std::basic_ios" = type { %"class.std::ios_base", %"class.std::basic_ostream"*, i8, i8, %"class.std::basic_streambuf"*, %"class.std::ctype"*, %"class.std::num_put"*, %"class.std::num_get"* }
%"class.std::ios_base" = type { i32 (...)**, i64, i64, i32, i32, i32, %"struct.std::ios_base::_Callback_list"*, %"struct.std::ios_base::_Words", [8 x %"struct.std::ios_base::_Words"], i32, %"struct.std::ios_base::_Words"*, %"class.std::locale" }
%"struct.std::ios_base::_Callback_list" = type { %"struct.std::ios_base::_Callback_list"*, void (i32, %"class.std::ios_base"*, i32)*, i32, i32 }
%"struct.std::ios_base::_Words" = type { i8*, i64 }
%"class.std::locale" = type { %"class.std::locale::_Impl"* }
%"class.std::locale::_Impl" = type { i32, %"class.std::locale::facet"**, i64, %"class.std::locale::facet"**, i8** }
%"class.std::locale::facet" = type <{ i32 (...)**, i32, [4 x i8] }>
%"class.std::basic_ostream" = type { i32 (...)**, %"class.std::basic_ios" }
%"class.std::basic_streambuf" = type { i32 (...)**, i8*, i8*, i8*, i8*, i8*, i8*, %"class.std::locale" }
%"class.std::ctype" = type <{ %"class.std::locale::facet.base", [4 x i8], %struct.__locale_struct*, i8, [7 x i8], i32*, i32*, i16*, i8, [256 x i8], [256 x i8], i8, [6 x i8] }>
%"class.std::locale::facet.base" = type <{ i32 (...)**, i32 }>
%struct.__locale_struct = type { [13 x %struct.__locale_data*], i16*, i32*, i32*, [13 x i8*] }
%struct.__locale_data = type opaque
%"class.std::num_put" = type { %"class.std::locale::facet.base", [4 x i8] }
%"class.std::num_get" = type { %"class.std::locale::facet.base", [4 x i8] }

@_ZStL8__ioinit = internal global %"class.std::ios_base::Init" zeroinitializer, align 1
@__dso_handle = external hidden global i8
@_ZSt3cin = external dso_local global %"class.std::basic_istream", align 8
@_ZSt4cout = external dso_local global %"class.std::basic_ostream", align 8
@llvm.global_ctors = appending global [1 x { i32, void ()*, i8* }] [{ i32, void ()*, i8* } { i32 65535, void ()* @_GLOBAL__sub_I_352.cpp, i8* null }]

; Function Attrs: noinline uwtable
define internal void @__cxx_global_var_init() #0 section ".text.startup" {
  call void @_ZNSt8ios_base4InitC1Ev(%"class.std::ios_base::Init"* @_ZStL8__ioinit)
  %1 = call i32 @__cxa_atexit(void (i8*)* bitcast (void (%"class.std::ios_base::Init"*)* @_ZNSt8ios_base4InitD1Ev to void (i8*)*), i8* getelementptr inbounds (%"class.std::ios_base::Init", %"class.std::ios_base::Init"* @_ZStL8__ioinit, i32 0, i32 0), i8* @__dso_handle) #3
  ret void
}

declare dso_local void @_ZNSt8ios_base4InitC1Ev(%"class.std::ios_base::Init"*) unnamed_addr #1

; Function Attrs: nounwind
declare dso_local void @_ZNSt8ios_base4InitD1Ev(%"class.std::ios_base::Init"*) unnamed_addr #2

; Function Attrs: nounwind
declare dso_local i32 @__cxa_atexit(void (i8*)*, i8*, i8*) #3

; Function Attrs: noinline norecurse uwtable
define dso_local i32 @main() #4 {
  %1 = alloca i32, align 4
  %2 = alloca [9999 x [20 x i8]], align 16
  %3 = alloca i8, align 1
  %4 = alloca [9999 x i8], align 16
  %5 = alloca i32, align 4
  %6 = alloca i32, align 4
  %7 = alloca i32, align 4
  %8 = alloca i32, align 4
  store i32 0, i32* %1, align 4
  %9 = bitcast [9999 x [20 x i8]]* %2 to i8*
  call void @llvm.memset.p0i8.i64(i8* align 16 %9, i8 0, i64 199980, i1 false)
  %10 = bitcast i8* %9 to <{ <{ i8, [19 x i8] }>, [9998 x <{ i8, [19 x i8] }>] }>*
  %11 = getelementptr inbounds <{ <{ i8, [19 x i8] }>, [9998 x <{ i8, [19 x i8] }>] }>, <{ <{ i8, [19 x i8] }>, [9998 x <{ i8, [19 x i8] }>] }>* %10, i32 0, i32 0
  %12 = getelementptr inbounds <{ i8, [19 x i8] }>, <{ i8, [19 x i8] }>* %11, i32 0, i32 0
  store i8 48, i8* %12, align 16
  %13 = bitcast [9999 x i8]* %4 to i8*
  call void @llvm.memset.p0i8.i64(i8* align 16 %13, i8 0, i64 9999, i1 false)
  %14 = bitcast i8* %13 to <{ i8, [9998 x i8] }>*
  %15 = getelementptr inbounds <{ i8, [9998 x i8] }>, <{ i8, [9998 x i8] }>* %14, i32 0, i32 0
  store i8 48, i8* %15, align 16
  store i32 0, i32* %5, align 4
  store i32 0, i32* %6, align 4
  store i32 0, i32* %7, align 4
  store i32 0, i32* %8, align 4
  %16 = getelementptr inbounds [9999 x i8], [9999 x i8]* %4, i64 0, i64 0
  %17 = call dereferenceable(280) %"class.std::basic_istream"* @_ZNSi7getlineEPcl(%"class.std::basic_istream"* @_ZSt3cin, i8* %16, i64 9999)
  %18 = getelementptr inbounds [9999 x i8], [9999 x i8]* %4, i64 0, i64 0
  %19 = call i64 @strlen(i8* %18) #7
  %20 = add i64 %19, 1
  %21 = getelementptr inbounds [9999 x i8], [9999 x i8]* %4, i64 0, i64 %20
  store i8 0, i8* %21, align 1
  br label %22

22:                                               ; preds = %57, %0
  %23 = load i32, i32* %5, align 4
  %24 = sext i32 %23 to i64
  %25 = getelementptr inbounds [9999 x i8], [9999 x i8]* %4, i64 0, i64 %24
  %26 = load i8, i8* %25, align 1
  %27 = sext i8 %26 to i32
  %28 = icmp eq i32 %27, 0
  br i1 %28, label %29, label %31

29:                                               ; preds = %22
  %30 = load i32, i32* %8, align 4
  store i32 %30, i32* %6, align 4
  br label %60

31:                                               ; preds = %22
  %32 = load i32, i32* %5, align 4
  %33 = sext i32 %32 to i64
  %34 = getelementptr inbounds [9999 x i8], [9999 x i8]* %4, i64 0, i64 %33
  %35 = load i8, i8* %34, align 1
  %36 = sext i8 %35 to i32
  %37 = icmp ne i32 %36, 32
  br i1 %37, label %38, label %51

38:                                               ; preds = %31
  %39 = load i32, i32* %5, align 4
  %40 = sext i32 %39 to i64
  %41 = getelementptr inbounds [9999 x i8], [9999 x i8]* %4, i64 0, i64 %40
  %42 = load i8, i8* %41, align 1
  %43 = load i32, i32* %7, align 4
  %44 = sext i32 %43 to i64
  %45 = getelementptr inbounds [9999 x [20 x i8]], [9999 x [20 x i8]]* %2, i64 0, i64 %44
  %46 = load i32, i32* %6, align 4
  %47 = sext i32 %46 to i64
  %48 = getelementptr inbounds [20 x i8], [20 x i8]* %45, i64 0, i64 %47
  store i8 %42, i8* %48, align 1
  %49 = load i32, i32* %6, align 4
  %50 = add nsw i32 %49, 1
  store i32 %50, i32* %6, align 4
  br label %55

51:                                               ; preds = %31
  %52 = load i32, i32* %7, align 4
  %53 = add nsw i32 %52, 1
  store i32 %53, i32* %7, align 4
  %54 = load i32, i32* %6, align 4
  store i32 %54, i32* %8, align 4
  store i32 0, i32* %6, align 4
  br label %55

55:                                               ; preds = %51, %38
  br label %56

56:                                               ; preds = %55
  br label %57

57:                                               ; preds = %56
  %58 = load i32, i32* %5, align 4
  %59 = add nsw i32 %58, 1
  store i32 %59, i32* %5, align 4
  br label %22

60:                                               ; preds = %29
  %61 = load i32, i32* %7, align 4
  store i32 %61, i32* %6, align 4
  br label %62

62:                                               ; preds = %72, %60
  %63 = load i32, i32* %6, align 4
  %64 = icmp sgt i32 %63, 0
  br i1 %64, label %65, label %75

65:                                               ; preds = %62
  %66 = load i32, i32* %6, align 4
  %67 = sext i32 %66 to i64
  %68 = getelementptr inbounds [9999 x [20 x i8]], [9999 x [20 x i8]]* %2, i64 0, i64 %67
  %69 = getelementptr inbounds [20 x i8], [20 x i8]* %68, i64 0, i64 0
  %70 = call dereferenceable(272) %"class.std::basic_ostream"* @_ZStlsISt11char_traitsIcEERSt13basic_ostreamIcT_ES5_PKc(%"class.std::basic_ostream"* dereferenceable(272) @_ZSt4cout, i8* %69)
  %71 = call dereferenceable(272) %"class.std::basic_ostream"* @_ZStlsISt11char_traitsIcEERSt13basic_ostreamIcT_ES5_c(%"class.std::basic_ostream"* dereferenceable(272) %70, i8 signext 32)
  br label %72

72:                                               ; preds = %65
  %73 = load i32, i32* %6, align 4
  %74 = add nsw i32 %73, -1
  store i32 %74, i32* %6, align 4
  br label %62

75:                                               ; preds = %62
  %76 = getelementptr inbounds [9999 x [20 x i8]], [9999 x [20 x i8]]* %2, i64 0, i64 0
  %77 = getelementptr inbounds [20 x i8], [20 x i8]* %76, i64 0, i64 0
  %78 = call dereferenceable(272) %"class.std::basic_ostream"* @_ZStlsISt11char_traitsIcEERSt13basic_ostreamIcT_ES5_PKc(%"class.std::basic_ostream"* dereferenceable(272) @_ZSt4cout, i8* %77)
  ret i32 0
}

; Function Attrs: argmemonly nounwind willreturn
declare void @llvm.memset.p0i8.i64(i8* nocapture writeonly, i8, i64, i1 immarg) #5

declare dso_local dereferenceable(280) %"class.std::basic_istream"* @_ZNSi7getlineEPcl(%"class.std::basic_istream"*, i8*, i64) #1

; Function Attrs: nounwind readonly
declare dso_local i64 @strlen(i8*) #6

declare dso_local dereferenceable(272) %"class.std::basic_ostream"* @_ZStlsISt11char_traitsIcEERSt13basic_ostreamIcT_ES5_c(%"class.std::basic_ostream"* dereferenceable(272), i8 signext) #1

declare dso_local dereferenceable(272) %"class.std::basic_ostream"* @_ZStlsISt11char_traitsIcEERSt13basic_ostreamIcT_ES5_PKc(%"class.std::basic_ostream"* dereferenceable(272), i8*) #1

; Function Attrs: noinline uwtable
define internal void @_GLOBAL__sub_I_352.cpp() #0 section ".text.startup" {
  call void @__cxx_global_var_init()
  ret void
}


!llvm.module.flags = !{!0}
!llvm.ident = !{!1}

!0 = !{i32 1, !"wchar_size", i32 4}
!1 = !{!"clang version 10.0.0-4ubuntu1 "}
